; Function Attrs: nounwind uwtable
define hidden zeroext i1 @SDL_GetWindowBordersSize_REAL(ptr noundef %0, ptr noundef %1, ptr noundef %2, ptr noundef %3, ptr noundef %4) local_unnamed_addr #0 {
  %6 = alloca i32, align 4
  call void @llvm.lifetime.start.p0(i64 4, ptr nonnull %6) #19
  store i32 0, ptr %6, align 4
  %.not = icmp eq ptr %1, null
  %spec.store.select = select i1 %.not, ptr %6, ptr %1
  %.not19 = icmp eq ptr %2, null
  %spec.store.select2 = select i1 %.not19, ptr %6, ptr %2
  %.not20 = icmp eq ptr %4, null
  %spec.store.select1 = select i1 %.not20, ptr %6, ptr %4
  %.not21 = icmp eq ptr %3, null
  %spec.store.select3 = select i1 %.not21, ptr %6, ptr %3
  store i32 0, ptr %spec.store.select1, align 4
  store i32 0, ptr %spec.store.select3, align 4
  store i32 0, ptr %spec.store.select2, align 4
  store i32 0, ptr %spec.store.select, align 4
  %7 = load ptr, ptr @_this, align 8
  %.not22 = icmp eq ptr %7, null
  br i1 %.not22, label %8, label %10

8:                                                ; preds = %5
  %9 = tail call zeroext i1 (ptr, ...) @SDL_SetError_REAL(ptr noundef nonnull @.str.1) #19
  br label %22

10:                                               ; preds = %5
  %11 = tail call zeroext i1 @SDL_ObjectValid(ptr noundef %0, i32 noundef 1) #19
  br i1 %11, label %14, label %12

12:                                               ; preds = %10
  %13 = tail call zeroext i1 (ptr, ...) @SDL_SetError_REAL(ptr noundef nonnull @.str.20) #19
  br label %22

14:                                               ; preds = %10
  %15 = load ptr, ptr @_this, align 8
  %16 = getelementptr inbounds nuw i8, ptr %15, i64 136
  %17 = load ptr, ptr %16, align 8
  %.not23 = icmp eq ptr %17, null
  br i1 %.not23, label %18, label %20

18:                                               ; preds = %14
  %19 = tail call zeroext i1 (ptr, ...) @SDL_SetError_REAL(ptr noundef nonnull @.str.24) #19
  br label %22

20:                                               ; preds = %14
  %21 = call zeroext i1 %17(ptr noundef nonnull %15, ptr noundef %0, ptr noundef nonnull %spec.store.select, ptr noundef nonnull %spec.store.select2, ptr noundef nonnull %spec.store.select3, ptr noundef nonnull %spec.store.select1) #19
  br label %22

22:                                               ; preds = %20, %18, %12, %8
  %.0 = phi i1 [ %21, %20 ], [ %19, %18 ], [ false, %12 ], [ false, %8 ]
  call void @llvm.lifetime.end.p0(i64 4, ptr nonnull %6) #19
  ret i1 %.0
}